target datalayout = "e-m:e-p270:32:32-p271:32:32-p272:64:64-i64:64-i128:128-f80:128-n8:16:32:64-S128"
target triple = "x86_64-pc-linux-gnu"

%struct.hwloc_topology = type { i32, i32, i32, ptr, ptr, i64, [20 x i32], [20 x i32], i64, i64, i32, ptr, i64, ptr, i64, [6 x %struct.hwloc_special_level_s], ptr, ptr, %struct.hwloc_binding_hooks, %struct.hwloc_topology_support, %struct.hwloc_infos_s, ptr, ptr, i32, ptr, ptr, i32, i32, ptr, i32, i32, ptr, i32, i32, i32, [5 x float], i32, ptr, ptr, i32, i32, ptr, i32, %struct.hwloc_numanode_attr_s, i32, i32, ptr, i64, i32, ptr, ptr, ptr }
%struct.hwloc_special_level_s = type { i32, ptr, ptr, ptr }
%struct.hwloc_binding_hooks = type { ptr, ptr, ptr, ptr, ptr, ptr, ptr, ptr, ptr, ptr, ptr, ptr, ptr, ptr, ptr, ptr, ptr, ptr, ptr, ptr, ptr, ptr, ptr, ptr }
%struct.hwloc_topology_support = type { ptr, ptr, ptr, ptr }
%struct.hwloc_infos_s = type { ptr, i32, i32 }
%struct.hwloc_numanode_attr_s = type { i64, i32, ptr }

; Function Attrs: nounwind uwtable
define i32 @hwloc_get_thread_cpubind(ptr noundef %0, i64 noundef %1, ptr noundef %2, i32 noundef %3) #0 {
  %5 = alloca i32, align 4
  %6 = alloca ptr, align 8
  %7 = alloca i64, align 8
  %8 = alloca ptr, align 8
  %9 = alloca i32, align 4
  store ptr %0, ptr %6, align 8, !tbaa !3
  store i64 %1, ptr %7, align 8, !tbaa !40
  store ptr %2, ptr %8, align 8, !tbaa !8
  store i32 %3, ptr %9, align 4, !tbaa !10
  %10 = load i32, ptr %9, align 4, !tbaa !10
  %11 = and i32 %10, -16
  %12 = icmp ne i32 %11, 0
  br i1 %12, label %13, label %15

13:                                               ; preds = %4
  %14 = call ptr @__errno_location() #8
  store i32 22, ptr %14, align 4, !tbaa !10
  store i32 -1, ptr %5, align 4
  br label %33

15:                                               ; preds = %4
  %16 = load ptr, ptr %6, align 8, !tbaa !3
  %17 = getelementptr inbounds nuw %struct.hwloc_topology, ptr %16, i32 0, i32 18
  %18 = getelementptr inbounds nuw %struct.hwloc_binding_hooks, ptr %17, i32 0, i32 7
  %19 = load ptr, ptr %18, align 8, !tbaa !42
  %20 = icmp ne ptr %19, null
  br i1 %20, label %21, label %31

21:                                               ; preds = %15
  %22 = load ptr, ptr %6, align 8, !tbaa !3
  %23 = getelementptr inbounds nuw %struct.hwloc_topology, ptr %22, i32 0, i32 18
  %24 = getelementptr inbounds nuw %struct.hwloc_binding_hooks, ptr %23, i32 0, i32 7
  %25 = load ptr, ptr %24, align 8, !tbaa !42
  %26 = load ptr, ptr %6, align 8, !tbaa !3
  %27 = load i64, ptr %7, align 8, !tbaa !40
  %28 = load ptr, ptr %8, align 8, !tbaa !8
  %29 = load i32, ptr %9, align 4, !tbaa !10
  %30 = call i32 %25(ptr noundef %26, i64 noundef %27, ptr noundef %28, i32 noundef %29)
  store i32 %30, ptr %5, align 4
  br label %33

31:                                               ; preds = %15
  %32 = call ptr @__errno_location() #8
  store i32 38, ptr %32, align 4, !tbaa !10
  store i32 -1, ptr %5, align 4
  br label %33

33:                                               ; preds = %31, %21, %13
  %34 = load i32, ptr %5, align 4
  ret i32 %34
}